ARM GAS  C:\Users\vedranb\AppData\Local\Temp\ccfx8qKf.s 			page 1


   1              		.syntax unified
   2              		.cpu cortex-m3
   3              		.fpu softvfp
   4              		.eabi_attribute 20, 1
   5              		.eabi_attribute 21, 1
   6              		.eabi_attribute 23, 3
   7              		.eabi_attribute 24, 1
   8              		.eabi_attribute 25, 1
   9              		.eabi_attribute 26, 1
  10              		.eabi_attribute 30, 1
  11              		.eabi_attribute 34, 1
  12              		.eabi_attribute 18, 4
  13              		.thumb
  14              		.file	"main.c"
  15              		.text
  16              	.Ltext0:
  17              		.cfi_sections	.debug_frame
  18              		.section	.text.main,"ax",%progbits
  19              		.align	2
  20              		.global	main
  21              		.thumb
  22              		.thumb_func
  23              		.type	main, %function
  24              	main:
  25              	.LFB63:
  26              		.file 1 "main.c"
   1:main.c        **** /**
   2:main.c        **** * @mainpage ZumoBot Project
   3:main.c        **** * @brief    You can make your own ZumoBot with various sensors.
   4:main.c        **** * @details  <br><br>
   5:main.c        ****     <p>
   6:main.c        ****     <B>General</B><br>
   7:main.c        ****     You will use Pololu Zumo Shields for your robot project with CY8CKIT-059(PSoC 5LP) from Cypress
   8:main.c        ****     library has basic methods of various sensors and communications so that you can make what you w
   9:main.c        ****     <br><br>
  10:main.c        ****     </p>
  11:main.c        ****     
  12:main.c        ****     <p>
  13:main.c        ****     <B>Sensors</B><br>
  14:main.c        ****     &nbsp;Included: <br>
  15:main.c        ****         &nbsp;&nbsp;&nbsp;&nbsp;LSM303D: Accelerometer & Magnetometer<br>
  16:main.c        ****         &nbsp;&nbsp;&nbsp;&nbsp;L3GD20H: Gyroscope<br>
  17:main.c        ****         &nbsp;&nbsp;&nbsp;&nbsp;Reflectance sensor<br>
  18:main.c        ****         &nbsp;&nbsp;&nbsp;&nbsp;Motors
  19:main.c        ****     &nbsp;Wii nunchuck<br>
  20:main.c        ****     &nbsp;TSOP-2236: IR Receiver<br>
  21:main.c        ****     &nbsp;HC-SR04: Ultrasonic sensor<br>
  22:main.c        ****     &nbsp;APDS-9301: Ambient light sensor<br>
  23:main.c        ****     &nbsp;IR LED <br><br><br>
  24:main.c        ****     </p>
  25:main.c        ****     
  26:main.c        ****     <p>
  27:main.c        ****     <B>Communication</B><br>
  28:main.c        ****     I2C, UART, Serial<br>
  29:main.c        ****     </p>
  30:main.c        **** */
  31:main.c        **** 
ARM GAS  C:\Users\vedranb\AppData\Local\Temp\ccfx8qKf.s 			page 2


  32:main.c        **** #include <project.h>
  33:main.c        **** #include <stdio.h>
  34:main.c        **** #include "Motor.h"
  35:main.c        **** #include "Ultra.h"
  36:main.c        **** #include "Nunchuk.h"
  37:main.c        **** #include "Reflectance.h"
  38:main.c        **** #include "I2C_made.h"
  39:main.c        **** #include "Gyro.h"
  40:main.c        **** #include "Accel_magnet.h"
  41:main.c        **** #include "IR.h"
  42:main.c        **** #include "Ambient.h"
  43:main.c        **** #include "Beep.h"
  44:main.c        **** #include "music.h"
  45:main.c        **** 
  46:main.c        **** int rread(void);
  47:main.c        **** 
  48:main.c        **** /**
  49:main.c        ****  * @file    main.c
  50:main.c        ****  * @brief   
  51:main.c        ****  * @details  ** You should enable global interrupt for operating properly. **<br>&nbsp;&nbsp;&nbsp;
  52:main.c        **** */
  53:main.c        **** 
  54:main.c        **** /*/play music
  55:main.c        **** int main(){
  56:main.c        ****     int i;
  57:main.c        ****     
  58:main.c        ****     motor_start();
  59:main.c        ****     
  60:main.c        ****     for(i=1; i<0; i++){
  61:main.c        ****         motor_forward(i*10, 500);
  62:main.c        ****         motor_backward(i*10, 500);
  63:main.c        ****     }
  64:main.c        ****     
  65:main.c        ****     motor_stop();
  66:main.c        ****     return 0;
  67:main.c        **** }//*/
  68:main.c        **** 
  69:main.c        **** /*//battery level//
  70:main.c        **** int main()
  71:main.c        **** {
  72:main.c        ****     CyGlobalIntEnable; 
  73:main.c        ****     UART_1_Start();
  74:main.c        ****     ADC_Battery_Start();        
  75:main.c        ****     int16 adcresult =0;
  76:main.c        ****     float volts = 0.0;
  77:main.c        **** 
  78:main.c        ****     printf("\nBoot\n");
  79:main.c        **** 
  80:main.c        ****     //BatteryLed_Write(1); // Switch led on 
  81:main.c        ****     BatteryLed_Write(0); // Switch led off 
  82:main.c        ****     //uint8 button;
  83:main.c        ****     //button = SW1_Read(); // read SW1 on pSoC board
  84:main.c        **** 
  85:main.c        ****     for(;;)
  86:main.c        ****     {
  87:main.c        ****         
  88:main.c        ****         ADC_Battery_StartConvert();
ARM GAS  C:\Users\vedranb\AppData\Local\Temp\ccfx8qKf.s 			page 3


  89:main.c        ****         if(ADC_Battery_IsEndConversion(ADC_Battery_WAIT_FOR_RESULT)) {   // wait for get ADC conver
  90:main.c        ****             adcresult = ADC_Battery_GetResult16();
  91:main.c        ****             volts = ADC_Battery_CountsTo_Volts(adcresult);                  // convert value to Vol
  92:main.c        ****         
  93:main.c        ****             // If you want to print value
  94:main.c        ****             printf("%d %f\r\n",adcresult, volts * 3 / 2);
  95:main.c        ****         }
  96:main.c        ****         CyDelay(500);
  97:main.c        ****         
  98:main.c        ****     }
  99:main.c        ****  }   
 100:main.c        **** //*/
 101:main.c        **** 
 102:main.c        **** 
 103:main.c        **** /*//ultra sonic sensor//
 104:main.c        **** int main()
 105:main.c        **** {
 106:main.c        ****     CyGlobalIntEnable; 
 107:main.c        ****     UART_1_Start();
 108:main.c        ****     Ultra_Start();                          // Ultra Sonic Start function
 109:main.c        ****     while(1) {
 110:main.c        ****         //If you want to print out the value  
 111:main.c        ****         printf("distance = %5.0f\r\n", Ultra_GetDistance());
 112:main.c        ****         CyDelay(1000);
 113:main.c        ****     }
 114:main.c        **** }   
 115:main.c        **** //*/
 116:main.c        **** 
 117:main.c        **** 
 118:main.c        **** /*//nunchuk//
 119:main.c        **** int main()
 120:main.c        **** {
 121:main.c        ****     CyGlobalIntEnable; 
 122:main.c        ****     UART_1_Start();
 123:main.c        ****   
 124:main.c        ****     nunchuk_start();
 125:main.c        ****     nunchuk_init();
 126:main.c        ****     
 127:main.c        ****     for(;;)
 128:main.c        ****     {    
 129:main.c        ****         nunchuk_read();
 130:main.c        ****     }
 131:main.c        **** }   
 132:main.c        **** //*/
 133:main.c        **** 
 134:main.c        **** 
 135:main.c        **** /*//IR receiver//
 136:main.c        **** int main()
 137:main.c        **** {
 138:main.c        ****     CyGlobalIntEnable; 
 139:main.c        ****     UART_1_Start();
 140:main.c        ****     
 141:main.c        ****     unsigned int IR_val; 
 142:main.c        ****     
 143:main.c        ****     for(;;)
 144:main.c        ****     {
 145:main.c        ****        IR_val = get_IR();
ARM GAS  C:\Users\vedranb\AppData\Local\Temp\ccfx8qKf.s 			page 4


 146:main.c        ****        printf("%x\r\n\n",IR_val);
 147:main.c        ****     }    
 148:main.c        ****  }   
 149:main.c        **** //*/
 150:main.c        **** 
 151:main.c        **** 
 152:main.c        **** /*//Ambient light sensor//
 153:main.c        **** int main()
 154:main.c        **** {
 155:main.c        ****     CyGlobalIntEnable; 
 156:main.c        ****     UART_1_Start();
 157:main.c        ****     
 158:main.c        ****     I2C_Start();
 159:main.c        ****     
 160:main.c        ****     I2C_write(0x29,0x80,0x00);          // set to power down
 161:main.c        ****     I2C_write(0x29,0x80,0x03);          // set to power on
 162:main.c        ****     
 163:main.c        ****     for(;;)
 164:main.c        ****     {    
 165:main.c        ****         uint8 Data0Low,Data0High,Data1Low,Data1High;
 166:main.c        ****         Data0Low = I2C_read(0x29,CH0_L);
 167:main.c        ****         Data0High = I2C_read(0x29,CH0_H);
 168:main.c        ****         Data1Low = I2C_read(0x29,CH1_L);
 169:main.c        ****         Data1High = I2C_read(0x29,CH1_H);
 170:main.c        ****         
 171:main.c        ****         uint8 CH0, CH1;
 172:main.c        ****         CH0 = convert_raw(Data0Low,Data0High);      // combine Data0
 173:main.c        ****         CH1 = convert_raw(Data1Low,Data1High);      // combine Data1
 174:main.c        **** 
 175:main.c        ****         double Ch0 = CH0;
 176:main.c        ****         double Ch1 = CH1;
 177:main.c        ****         
 178:main.c        ****         double data = 0;
 179:main.c        ****         data = getLux(Ch0,Ch1);
 180:main.c        ****         
 181:main.c        ****         // If you want to print out data
 182:main.c        ****         //printf("%lf\r\n",data);    
 183:main.c        ****     }    
 184:main.c        ****  }   
 185:main.c        **** //*/
 186:main.c        **** 
 187:main.c        **** 
 188:main.c        **** /*//accelerometer//
 189:main.c        **** int main()
 190:main.c        **** {
 191:main.c        ****     CyGlobalIntEnable; 
 192:main.c        ****     UART_1_Start();
 193:main.c        ****   
 194:main.c        ****     I2C_Start();
 195:main.c        ****   
 196:main.c        ****     uint8 X_L_A, X_H_A, Y_L_A, Y_H_A, Z_L_A, Z_H_A;
 197:main.c        ****     int16 X_AXIS_A, Y_AXIS_A, Z_AXIS_A;
 198:main.c        ****     
 199:main.c        ****     I2C_write(ACCEL_MAG_ADDR, ACCEL_CTRL1_REG, 0x37);           // set accelerometer & magnetometer
 200:main.c        ****     I2C_write(ACCEL_MAG_ADDR, ACCEL_CTRL7_REG, 0x22);
 201:main.c        ****     
 202:main.c        ****     
ARM GAS  C:\Users\vedranb\AppData\Local\Temp\ccfx8qKf.s 			page 5


 203:main.c        ****     for(;;)
 204:main.c        ****     {
 205:main.c        ****         //print out accelerometer output
 206:main.c        ****         X_L_A = I2C_read(ACCEL_MAG_ADDR, OUT_X_L_A);
 207:main.c        ****         X_H_A = I2C_read(ACCEL_MAG_ADDR, OUT_X_H_A);
 208:main.c        ****         X_AXIS_A = convert_raw(X_L_A, X_H_A);
 209:main.c        ****         
 210:main.c        ****         Y_L_A = I2C_read(ACCEL_MAG_ADDR, OUT_Y_L_A);
 211:main.c        ****         Y_H_A = I2C_read(ACCEL_MAG_ADDR, OUT_Y_H_A);
 212:main.c        ****         Y_AXIS_A = convert_raw(Y_L_A, Y_H_A);
 213:main.c        ****         
 214:main.c        ****         Z_L_A = I2C_read(ACCEL_MAG_ADDR, OUT_Z_L_A);
 215:main.c        ****         Z_H_A = I2C_read(ACCEL_MAG_ADDR, OUT_Z_H_A);
 216:main.c        ****         Z_AXIS_A = convert_raw(Z_L_A, Z_H_A);
 217:main.c        ****         
 218:main.c        ****         printf("ACCEL: %d %d %d %d %d %d \r\n", X_L_A, X_H_A, Y_L_A, Y_H_A, Z_L_A, Z_H_A);
 219:main.c        ****         value_convert_accel(X_AXIS_A, Y_AXIS_A, Z_AXIS_A);
 220:main.c        ****         printf("\n");
 221:main.c        ****         
 222:main.c        ****         CyDelay(50);
 223:main.c        ****     }
 224:main.c        **** }   
 225:main.c        **** //*/
 226:main.c        **** 
 227:main.c        **** 
 228:main.c        **** ///reflectance//
 229:main.c        **** int main()
 230:main.c        **** {
  27              		.loc 1 230 0
  28              		.cfi_startproc
  29              		@ args = 0, pretend = 0, frame = 16
  30              		@ frame_needed = 0, uses_anonymous_args = 0
  31 0000 10B5     		push	{r4, lr}
  32              		.cfi_def_cfa_offset 8
  33              		.cfi_offset 4, -8
  34              		.cfi_offset 14, -4
  35 0002 86B0     		sub	sp, sp, #24
  36              		.cfi_def_cfa_offset 32
 231:main.c        ****     struct sensors_ ref;
 232:main.c        ****     struct sensors_ dig;
 233:main.c        ****     CyGlobalIntEnable; 
  37              		.loc 1 233 0
  38              	@ 233 "main.c" 1
  39 0004 62B6     		CPSIE   i
  40              	@ 0 "" 2
 234:main.c        ****     UART_1_Start();
  41              		.loc 1 234 0
  42              		.thumb
  43 0006 FFF7FEFF 		bl	UART_1_Start
  44              	.LVL0:
 235:main.c        ****   
 236:main.c        ****     sensor_isr_StartEx(sensor_isr_handler);
  45              		.loc 1 236 0
  46 000a 1648     		ldr	r0, .L4
  47 000c FFF7FEFF 		bl	sensor_isr_StartEx
  48              	.LVL1:
 237:main.c        ****     
ARM GAS  C:\Users\vedranb\AppData\Local\Temp\ccfx8qKf.s 			page 6


 238:main.c        ****     reflectance_start();
  49              		.loc 1 238 0
  50 0010 FFF7FEFF 		bl	reflectance_start
  51              	.LVL2:
 239:main.c        **** 
 240:main.c        ****     IR_led_Write(1);
  52              		.loc 1 240 0
  53 0014 0120     		movs	r0, #1
  54 0016 FFF7FEFF 		bl	IR_led_Write
  55              	.LVL3:
  56              	.L2:
 241:main.c        ****     for(;;)
 242:main.c        ****     {
 243:main.c        ****         reflectance_read(&ref);
  57              		.loc 1 243 0 discriminator 1
  58 001a 04A8     		add	r0, sp, #16
  59 001c FFF7FEFF 		bl	reflectance_read
  60              	.LVL4:
 244:main.c        ****         printf("%d %d %d %d \r\n", ref.l3, ref.l1, ref.r1, ref.r3);       //print out each period o
  61              		.loc 1 244 0 discriminator 1
  62 0020 BDF81010 		ldrh	r1, [sp, #16]
  63 0024 BDF81220 		ldrh	r2, [sp, #18]
  64 0028 BDF81430 		ldrh	r3, [sp, #20]
  65 002c BDF81600 		ldrh	r0, [sp, #22]
  66 0030 0D4C     		ldr	r4, .L4+4
  67 0032 0090     		str	r0, [sp]
  68 0034 2046     		mov	r0, r4
  69 0036 FFF7FEFF 		bl	printf
  70              	.LVL5:
 245:main.c        ****         reflectance_digital(&dig);      //print out 0 or 1 according to results of reflectance peri
  71              		.loc 1 245 0 discriminator 1
  72 003a 02A8     		add	r0, sp, #8
  73 003c FFF7FEFF 		bl	reflectance_digital
  74              	.LVL6:
 246:main.c        ****         printf("%d %d %d %d \r\n", dig.l3, dig.l1, dig.r1, dig.r3);        //print out 0 or 1 accor
  75              		.loc 1 246 0 discriminator 1
  76 0040 BDF80810 		ldrh	r1, [sp, #8]
  77 0044 BDF80A20 		ldrh	r2, [sp, #10]
  78 0048 BDF80C30 		ldrh	r3, [sp, #12]
  79 004c BDF80E00 		ldrh	r0, [sp, #14]
  80 0050 0090     		str	r0, [sp]
  81 0052 2046     		mov	r0, r4
  82 0054 FFF7FEFF 		bl	printf
  83              	.LVL7:
 247:main.c        ****         
 248:main.c        ****         CyDelay(500);
  84              		.loc 1 248 0 discriminator 1
  85 0058 4FF4FA70 		mov	r0, #500
  86 005c FFF7FEFF 		bl	CyDelay
  87              	.LVL8:
 249:main.c        ****     }
  88              		.loc 1 249 0 discriminator 1
  89 0060 DBE7     		b	.L2
  90              	.L5:
  91 0062 00BF     		.align	2
  92              	.L4:
  93 0064 00000000 		.word	sensor_isr_handler
ARM GAS  C:\Users\vedranb\AppData\Local\Temp\ccfx8qKf.s 			page 7


  94 0068 00000000 		.word	.LC0
  95              		.cfi_endproc
  96              	.LFE63:
  97              		.size	main, .-main
  98              		.section	.text._write,"ax",%progbits
  99              		.align	2
 100              		.global	_write
 101              		.thumb
 102              		.thumb_func
 103              		.type	_write, %function
 104              	_write:
 105              	.LFB64:
 250:main.c        **** }   
 251:main.c        **** //*/
 252:main.c        **** 
 253:main.c        **** /*  //motor//
 254:main.c        **** int main()
 255:main.c        **** {
 256:main.c        ****     CyGlobalIntEnable; 
 257:main.c        ****     UART_1_Start();
 258:main.c        **** 
 259:main.c        ****     motor_start();              // motor start
 260:main.c        **** 
 261:main.c        ****     motor_forward(100,2000);     // moving forward
 262:main.c        ****     motor_turn(200,50,2000);     // turn
 263:main.c        ****     motor_turn(50,200,2000);     // turn
 264:main.c        ****     motor_backward(100,2000);    // movinb backward
 265:main.c        ****        
 266:main.c        ****     motor_stop();               // motor stop
 267:main.c        ****     
 268:main.c        ****     for(;;)
 269:main.c        ****     {
 270:main.c        **** 
 271:main.c        ****     }
 272:main.c        **** }
 273:main.c        **** //*/
 274:main.c        ****     
 275:main.c        **** 
 276:main.c        **** /*//gyroscope//
 277:main.c        **** int main()
 278:main.c        **** {
 279:main.c        ****     CyGlobalIntEnable; 
 280:main.c        ****     UART_1_Start();
 281:main.c        ****   
 282:main.c        ****     I2C_Start();
 283:main.c        ****   
 284:main.c        ****     uint8 X_L_G, X_H_G, Y_L_G, Y_H_G, Z_L_G, Z_H_G;
 285:main.c        ****     int16 X_AXIS_G, Y_AXIS_G, Z_AXIS_G;
 286:main.c        ****     
 287:main.c        ****     I2C_write(GYRO_ADDR, GYRO_CTRL1_REG, 0x0F);             // set gyroscope into active mode
 288:main.c        ****     I2C_write(GYRO_ADDR, GYRO_CTRL4_REG, 0x30);             // set full scale selection to 2000dps 
 289:main.c        ****     
 290:main.c        ****     for(;;)
 291:main.c        ****     {
 292:main.c        ****         //print out gyroscope output
 293:main.c        ****         X_L_G = I2C_read(GYRO_ADDR, OUT_X_AXIS_L);
 294:main.c        ****         X_H_G = I2C_read(GYRO_ADDR, OUT_X_AXIS_H);
ARM GAS  C:\Users\vedranb\AppData\Local\Temp\ccfx8qKf.s 			page 8


 295:main.c        ****         X_AXIS_G = convert_raw(X_H_G, X_L_G);
 296:main.c        ****         
 297:main.c        ****         
 298:main.c        ****         Y_L_G = I2C_read(GYRO_ADDR, OUT_Y_AXIS_L);
 299:main.c        ****         Y_H_G = I2C_read(GYRO_ADDR, OUT_Y_AXIS_H);
 300:main.c        ****         Y_AXIS_G = convert_raw(Y_H_G, Y_L_G);
 301:main.c        ****         
 302:main.c        ****         
 303:main.c        ****         Z_L_G = I2C_read(GYRO_ADDR, OUT_Z_AXIS_L);
 304:main.c        ****         Z_H_G = I2C_read(GYRO_ADDR, OUT_Z_AXIS_H);
 305:main.c        ****         Z_AXIS_G = convert_raw(Z_H_G, Z_L_G);
 306:main.c        ****      
 307:main.c        ****         // If you want to print value
 308:main.c        ****         printf("%d %d %d \r\n", X_AXIS_G, Y_AXIS_G, Z_AXIS_G);
 309:main.c        ****         CyDelay(50);
 310:main.c        ****     }
 311:main.c        **** }   
 312:main.c        **** //*/
 313:main.c        **** 
 314:main.c        **** 
 315:main.c        **** /*//magnetometer//
 316:main.c        **** int main()
 317:main.c        **** {
 318:main.c        ****     CyGlobalIntEnable; 
 319:main.c        ****     UART_1_Start();
 320:main.c        ****   
 321:main.c        ****     I2C_Start();
 322:main.c        ****    
 323:main.c        ****     uint8 X_L_M, X_H_M, Y_L_M, Y_H_M, Z_L_M, Z_H_M;
 324:main.c        ****     int16 X_AXIS, Y_AXIS, Z_AXIS;
 325:main.c        ****     
 326:main.c        ****     I2C_write(GYRO_ADDR, GYRO_CTRL1_REG, 0x0F);             // set gyroscope into active mode
 327:main.c        ****     I2C_write(GYRO_ADDR, GYRO_CTRL4_REG, 0x30);             // set full scale selection to 2000dps
 328:main.c        ****     I2C_write(ACCEL_MAG_ADDR, ACCEL_CTRL1_REG, 0x37);           // set accelerometer & magnetometer
 329:main.c        ****     I2C_write(ACCEL_MAG_ADDR, ACCEL_CTRL7_REG, 0x22);
 330:main.c        ****     
 331:main.c        ****     
 332:main.c        ****     for(;;)
 333:main.c        ****     {
 334:main.c        ****         X_L_M = I2C_read(ACCEL_MAG_ADDR, OUT_X_L_M);
 335:main.c        ****         X_H_M = I2C_read(ACCEL_MAG_ADDR, OUT_X_H_M);
 336:main.c        ****         X_AXIS = convert_raw(X_L_M, X_H_M);
 337:main.c        ****         
 338:main.c        ****         Y_L_M = I2C_read(ACCEL_MAG_ADDR, OUT_Y_L_M);
 339:main.c        ****         Y_H_M = I2C_read(ACCEL_MAG_ADDR, OUT_Y_H_M);
 340:main.c        ****         Y_AXIS = convert_raw(Y_L_M, Y_H_M);
 341:main.c        ****         
 342:main.c        ****         Z_L_M = I2C_read(ACCEL_MAG_ADDR, OUT_Z_L_M);
 343:main.c        ****         Z_H_M = I2C_read(ACCEL_MAG_ADDR, OUT_Z_H_M);
 344:main.c        ****         Z_AXIS = convert_raw(Z_L_M, Z_H_M);
 345:main.c        ****         
 346:main.c        ****         heading(X_AXIS, Y_AXIS);
 347:main.c        ****         printf("MAGNET: %d %d %d %d %d %d \r\n", X_L_M, X_H_M, Y_L_M, Y_H_M, Z_L_M, Z_H_M);
 348:main.c        ****         printf("%d %d %d \r\n", X_AXIS,Y_AXIS, Z_AXIS);
 349:main.c        ****         CyDelay(50);      
 350:main.c        ****     }
 351:main.c        **** }   
ARM GAS  C:\Users\vedranb\AppData\Local\Temp\ccfx8qKf.s 			page 9


 352:main.c        **** //*/
 353:main.c        **** 
 354:main.c        **** 
 355:main.c        **** #if 0
 356:main.c        **** int rread(void)
 357:main.c        **** {
 358:main.c        ****     SC0_SetDriveMode(PIN_DM_STRONG);
 359:main.c        ****     SC0_Write(1);
 360:main.c        ****     CyDelayUs(10);
 361:main.c        ****     SC0_SetDriveMode(PIN_DM_DIG_HIZ);
 362:main.c        ****     Timer_1_Start();
 363:main.c        ****     uint16_t start = Timer_1_ReadCounter();
 364:main.c        ****     uint16_t end = 0;
 365:main.c        ****     while(!(Timer_1_ReadStatusRegister() & Timer_1_STATUS_TC)) {
 366:main.c        ****         if(SC0_Read() == 0 && end == 0) {
 367:main.c        ****             end = Timer_1_ReadCounter();
 368:main.c        ****         }
 369:main.c        ****     }
 370:main.c        ****     Timer_1_Stop();
 371:main.c        ****     
 372:main.c        ****     return (start - end);
 373:main.c        **** }
 374:main.c        **** #endif
 375:main.c        **** 
 376:main.c        **** /* Don't remove the functions below */
 377:main.c        **** int _write(int file, char *ptr, int len)
 378:main.c        **** {
 106              		.loc 1 378 0
 107              		.cfi_startproc
 108              		@ args = 0, pretend = 0, frame = 0
 109              		@ frame_needed = 0, uses_anonymous_args = 0
 110              	.LVL9:
 111 0000 F8B5     		push	{r3, r4, r5, r6, r7, lr}
 112              		.cfi_def_cfa_offset 24
 113              		.cfi_offset 3, -24
 114              		.cfi_offset 4, -20
 115              		.cfi_offset 5, -16
 116              		.cfi_offset 6, -12
 117              		.cfi_offset 7, -8
 118              		.cfi_offset 14, -4
 119 0002 0C46     		mov	r4, r1
 120 0004 1746     		mov	r7, r2
 121              	.LVL10:
 379:main.c        ****     (void)file; /* Parameter is not used, suppress unused argument warning */
 380:main.c        **** 	int n;
 381:main.c        **** 	for(n = 0; n < len; n++) {
 122              		.loc 1 381 0
 123 0006 0025     		movs	r5, #0
 124 0008 0BE0     		b	.L7
 125              	.LVL11:
 126              	.L9:
 382:main.c        ****         if(*ptr == '\n') UART_1_PutChar('\r');
 127              		.loc 1 382 0
 128 000a 2378     		ldrb	r3, [r4]	@ zero_extendqisi2
 129 000c 0A2B     		cmp	r3, #10
 130 000e 02D1     		bne	.L8
 131              		.loc 1 382 0 is_stmt 0 discriminator 1
ARM GAS  C:\Users\vedranb\AppData\Local\Temp\ccfx8qKf.s 			page 10


 132 0010 0D20     		movs	r0, #13
 133 0012 FFF7FEFF 		bl	UART_1_PutChar
 134              	.LVL12:
 135              	.L8:
 383:main.c        **** 		UART_1_PutChar(*ptr++);
 136              		.loc 1 383 0 is_stmt 1 discriminator 2
 137 0016 661C     		adds	r6, r4, #1
 138              	.LVL13:
 139 0018 2078     		ldrb	r0, [r4]	@ zero_extendqisi2
 140 001a FFF7FEFF 		bl	UART_1_PutChar
 141              	.LVL14:
 381:main.c        ****         if(*ptr == '\n') UART_1_PutChar('\r');
 142              		.loc 1 381 0 discriminator 2
 143 001e 0135     		adds	r5, r5, #1
 144              	.LVL15:
 145              		.loc 1 383 0 discriminator 2
 146 0020 3446     		mov	r4, r6
 147              	.LVL16:
 148              	.L7:
 381:main.c        ****         if(*ptr == '\n') UART_1_PutChar('\r');
 149              		.loc 1 381 0 discriminator 1
 150 0022 BD42     		cmp	r5, r7
 151 0024 F1DB     		blt	.L9
 384:main.c        **** 	}
 385:main.c        **** 	return len;
 386:main.c        **** }
 152              		.loc 1 386 0
 153 0026 3846     		mov	r0, r7
 154 0028 F8BD     		pop	{r3, r4, r5, r6, r7, pc}
 155              		.cfi_endproc
 156              	.LFE64:
 157              		.size	_write, .-_write
 158 002a 00BF     		.section	.text._read,"ax",%progbits
 159              		.align	2
 160              		.global	_read
 161              		.thumb
 162              		.thumb_func
 163              		.type	_read, %function
 164              	_read:
 165              	.LFB65:
 387:main.c        **** 
 388:main.c        **** int _read (int file, char *ptr, int count)
 389:main.c        **** {
 166              		.loc 1 389 0
 167              		.cfi_startproc
 168              		@ args = 0, pretend = 0, frame = 0
 169              		@ frame_needed = 0, uses_anonymous_args = 0
 170              	.LVL17:
 171 0000 F8B5     		push	{r3, r4, r5, r6, r7, lr}
 172              		.cfi_def_cfa_offset 24
 173              		.cfi_offset 3, -24
 174              		.cfi_offset 4, -20
 175              		.cfi_offset 5, -16
 176              		.cfi_offset 6, -12
 177              		.cfi_offset 7, -8
 178              		.cfi_offset 14, -4
 179 0002 0F46     		mov	r7, r1
ARM GAS  C:\Users\vedranb\AppData\Local\Temp\ccfx8qKf.s 			page 11


 180 0004 1446     		mov	r4, r2
 181              	.LVL18:
 390:main.c        ****     int chs = 0;
 182              		.loc 1 390 0
 183 0006 0026     		movs	r6, #0
 391:main.c        ****     char ch;
 392:main.c        ****  
 393:main.c        ****     (void)file; /* Parameter is not used, suppress unused argument warning */
 394:main.c        ****     while(count > 0) {
 184              		.loc 1 394 0
 185 0008 12E0     		b	.L13
 186              	.LVL19:
 187              	.L16:
 395:main.c        ****         ch = UART_1_GetChar();
 188              		.loc 1 395 0
 189 000a FFF7FEFF 		bl	UART_1_GetChar
 190              	.LVL20:
 396:main.c        ****         if(ch != 0) {
 191              		.loc 1 396 0
 192 000e 0546     		mov	r5, r0
 193 0010 70B1     		cbz	r0, .L13
 397:main.c        ****             UART_1_PutChar(ch);
 194              		.loc 1 397 0
 195 0012 FFF7FEFF 		bl	UART_1_PutChar
 196              	.LVL21:
 398:main.c        ****             chs++;
 197              		.loc 1 398 0
 198 0016 0136     		adds	r6, r6, #1
 199              	.LVL22:
 399:main.c        ****             if(ch == '\r') {
 200              		.loc 1 399 0
 201 0018 0D2D     		cmp	r5, #13
 202 001a 03D1     		bne	.L14
 203              	.LVL23:
 400:main.c        ****                 ch = '\n';
 401:main.c        ****                 UART_1_PutChar(ch);
 204              		.loc 1 401 0
 205 001c 0A20     		movs	r0, #10
 206 001e FFF7FEFF 		bl	UART_1_PutChar
 207              	.LVL24:
 400:main.c        ****                 ch = '\n';
 208              		.loc 1 400 0
 209 0022 0A25     		movs	r5, #10
 210              	.LVL25:
 211              	.L14:
 402:main.c        ****             }
 403:main.c        ****             *ptr++ = ch;
 212              		.loc 1 403 0
 213 0024 7B1C     		adds	r3, r7, #1
 214              	.LVL26:
 215 0026 3D70     		strb	r5, [r7]
 404:main.c        ****             count--;
 216              		.loc 1 404 0
 217 0028 013C     		subs	r4, r4, #1
 218              	.LVL27:
 405:main.c        ****             if(ch == '\n') break;
 219              		.loc 1 405 0
ARM GAS  C:\Users\vedranb\AppData\Local\Temp\ccfx8qKf.s 			page 12


 220 002a 0A2D     		cmp	r5, #10
 221 002c 02D0     		beq	.L15
 403:main.c        ****             count--;
 222              		.loc 1 403 0
 223 002e 1F46     		mov	r7, r3
 224              	.LVL28:
 225              	.L13:
 394:main.c        ****         ch = UART_1_GetChar();
 226              		.loc 1 394 0
 227 0030 002C     		cmp	r4, #0
 228 0032 EADC     		bgt	.L16
 229              	.LVL29:
 230              	.L15:
 406:main.c        ****         }
 407:main.c        ****     }
 408:main.c        ****     return chs;
 409:main.c        **** }
 231              		.loc 1 409 0
 232 0034 3046     		mov	r0, r6
 233 0036 F8BD     		pop	{r3, r4, r5, r6, r7, pc}
 234              		.cfi_endproc
 235              	.LFE65:
 236              		.size	_read, .-_read
 237              		.section	.rodata.str1.4,"aMS",%progbits,1
 238              		.align	2
 239              	.LC0:
 240 0000 25642025 		.ascii	"%d %d %d %d \015\012\000"
 240      64202564 
 240      20256420 
 240      0D0A00
 241 000f 00       		.text
 242              	.Letext0:
 243              		.file 2 "c:\\program files (x86)\\cypress\\psoc creator\\4.0\\psoc creator\\import\\gnu\\arm\\4.9.
 244              		.file 3 "c:\\program files (x86)\\cypress\\psoc creator\\4.0\\psoc creator\\import\\gnu\\arm\\4.9.
 245              		.file 4 "Generated_Source\\PSoC5/cytypes.h"
 246              		.file 5 ".\\ZumoLibrary/Reflectance.h"
 247              		.file 6 "Generated_Source\\PSoC5/UART_1.h"
 248              		.file 7 "Generated_Source\\PSoC5/sensor_isr.h"
 249              		.file 8 "Generated_Source\\PSoC5/IR_led.h"
 250              		.file 9 "Generated_Source\\PSoC5/CyLib.h"
 251              		.file 10 "Generated_Source\\PSoC5/core_cm3.h"
 252              		.file 11 "c:\\program files (x86)\\cypress\\psoc creator\\4.0\\psoc creator\\import\\gnu\\arm\\4.9